target datalayout = "e-m:e-p270:32:32-p271:32:32-p272:64:64-i64:64-i128:128-f80:128-n8:16:32:64-S128"
target triple = "x86_64-pc-linux-gnu"

%struct.nghttp2_frame_hd = type { i64, i32, i8, i8, i8 }
%struct.nghttp2_extension = type { %struct.nghttp2_frame_hd, ptr }
%struct.nghttp2_origin_entry = type { ptr, i64 }
%struct.nghttp2_ext_origin = type { i64, ptr }

; Function Attrs: nounwind uwtable
define hidden void @nghttp2_frame_hd_init(ptr noundef %0, i64 noundef %1, i8 noundef zeroext %2, i8 noundef zeroext %3, i32 noundef %4) #0 {
  %6 = alloca ptr, align 8
  %7 = alloca i64, align 8
  %8 = alloca i8, align 1
  %9 = alloca i8, align 1
  %10 = alloca i32, align 4
  store ptr %0, ptr %6, align 8, !tbaa !8
  store i64 %1, ptr %7, align 8, !tbaa !18
  store i8 %2, ptr %8, align 1, !tbaa !14
  store i8 %3, ptr %9, align 1, !tbaa !14
  store i32 %4, ptr %10, align 4, !tbaa !19
  %11 = load i64, ptr %7, align 8, !tbaa !18
  %12 = load ptr, ptr %6, align 8, !tbaa !8
  %13 = getelementptr inbounds nuw %struct.nghttp2_frame_hd, ptr %12, i32 0, i32 0
  store i64 %11, ptr %13, align 8, !tbaa !9
  %14 = load i8, ptr %8, align 1, !tbaa !14
  %15 = load ptr, ptr %6, align 8, !tbaa !8
  %16 = getelementptr inbounds nuw %struct.nghttp2_frame_hd, ptr %15, i32 0, i32 2
  store i8 %14, ptr %16, align 4, !tbaa !13
  %17 = load i8, ptr %9, align 1, !tbaa !14
  %18 = load ptr, ptr %6, align 8, !tbaa !8
  %19 = getelementptr inbounds nuw %struct.nghttp2_frame_hd, ptr %18, i32 0, i32 3
  store i8 %17, ptr %19, align 1, !tbaa !15
  %20 = load i32, ptr %10, align 4, !tbaa !19
  %21 = load ptr, ptr %6, align 8, !tbaa !8
  %22 = getelementptr inbounds nuw %struct.nghttp2_frame_hd, ptr %21, i32 0, i32 1
  store i32 %20, ptr %22, align 8, !tbaa !16
  %23 = load ptr, ptr %6, align 8, !tbaa !8
  %24 = getelementptr inbounds nuw %struct.nghttp2_frame_hd, ptr %23, i32 0, i32 4
  store i8 0, ptr %24, align 2, !tbaa !17
  ret void
}

; Function Attrs: nounwind uwtable
define hidden void @nghttp2_frame_origin_init(ptr noundef %0, ptr noundef %1, i64 noundef %2) #0 {
  %4 = alloca ptr, align 8
  %5 = alloca ptr, align 8
  %6 = alloca i64, align 8
  %7 = alloca ptr, align 8
  %8 = alloca i64, align 8
  %9 = alloca i64, align 8
  store ptr %0, ptr %4, align 8, !tbaa !8
  store ptr %1, ptr %5, align 8, !tbaa !8
  store i64 %2, ptr %6, align 8, !tbaa !18
  call void @llvm.lifetime.start.p0(i64 8, ptr %7) #7
  call void @llvm.lifetime.start.p0(i64 8, ptr %8) #7
  store i64 0, ptr %8, align 8, !tbaa !18
  call void @llvm.lifetime.start.p0(i64 8, ptr %9) #7
  store i64 0, ptr %9, align 8, !tbaa !18
  br label %10

10:                                               ; preds = %23, %3
  %11 = load i64, ptr %9, align 8, !tbaa !18
  %12 = load i64, ptr %6, align 8, !tbaa !18
  %13 = icmp ult i64 %11, %12
  br i1 %13, label %14, label %26

14:                                               ; preds = %10
  %15 = load ptr, ptr %5, align 8, !tbaa !8
  %16 = load i64, ptr %9, align 8, !tbaa !18
  %17 = getelementptr inbounds nuw %struct.nghttp2_origin_entry, ptr %15, i64 %16
  %18 = getelementptr inbounds nuw %struct.nghttp2_origin_entry, ptr %17, i32 0, i32 1
  %19 = load i64, ptr %18, align 8, !tbaa !56
  %20 = add i64 2, %19
  %21 = load i64, ptr %8, align 8, !tbaa !18
  %22 = add i64 %21, %20
  store i64 %22, ptr %8, align 8, !tbaa !18
  br label %23

23:                                               ; preds = %14
  %24 = load i64, ptr %9, align 8, !tbaa !18
  %25 = add i64 %24, 1
  store i64 %25, ptr %9, align 8, !tbaa !18
  br label %10, !llvm.loop !58

26:                                               ; preds = %10
  %27 = load ptr, ptr %4, align 8, !tbaa !8
  %28 = getelementptr inbounds nuw %struct.nghttp2_extension, ptr %27, i32 0, i32 0
  %29 = load i64, ptr %8, align 8, !tbaa !18
  call void @nghttp2_frame_hd_init(ptr noundef %28, i64 noundef %29, i8 noundef zeroext 12, i8 noundef zeroext 0, i32 noundef 0)
  %30 = load ptr, ptr %4, align 8, !tbaa !8
  %31 = getelementptr inbounds nuw %struct.nghttp2_extension, ptr %30, i32 0, i32 1
  %32 = load ptr, ptr %31, align 8, !tbaa !49
  store ptr %32, ptr %7, align 8, !tbaa !8
  %33 = load ptr, ptr %5, align 8, !tbaa !8
  %34 = load ptr, ptr %7, align 8, !tbaa !8
  %35 = getelementptr inbounds nuw %struct.nghttp2_ext_origin, ptr %34, i32 0, i32 1
  store ptr %33, ptr %35, align 8, !tbaa !60
  %36 = load i64, ptr %6, align 8, !tbaa !18
  %37 = load ptr, ptr %7, align 8, !tbaa !8
  %38 = getelementptr inbounds nuw %struct.nghttp2_ext_origin, ptr %37, i32 0, i32 0
  store i64 %36, ptr %38, align 8, !tbaa !62
  call void @llvm.lifetime.end.p0(i64 8, ptr %9) #7
  call void @llvm.lifetime.end.p0(i64 8, ptr %8) #7
  call void @llvm.lifetime.end.p0(i64 8, ptr %7) #7
  ret void
}